target datalayout = "e-m:e-p270:32:32-p271:32:32-p272:64:64-i64:64-i128:128-f80:128-n8:16:32:64-S128"
target triple = "x86_64-pc-linux-gnu"

%struct.__storeu_si128 = type { <2 x i64> }
%struct.__loadu_si128 = type { <2 x i64> }

; Function Attrs: alwaysinline nounwind uwtable
define internal <2 x i64> @_mm_set_epi8(i8 noundef signext %0, i8 noundef signext %1, i8 noundef signext %2, i8 noundef signext %3, i8 noundef signext %4, i8 noundef signext %5, i8 noundef signext %6, i8 noundef signext %7, i8 noundef signext %8, i8 noundef signext %9, i8 noundef signext %10, i8 noundef signext %11, i8 noundef signext %12, i8 noundef signext %13, i8 noundef signext %14, i8 noundef signext %15) #4 {
  %17 = alloca i8, align 1
  %18 = alloca i8, align 1
  %19 = alloca i8, align 1
  %20 = alloca i8, align 1
  %21 = alloca i8, align 1
  %22 = alloca i8, align 1
  %23 = alloca i8, align 1
  %24 = alloca i8, align 1
  %25 = alloca i8, align 1
  %26 = alloca i8, align 1
  %27 = alloca i8, align 1
  %28 = alloca i8, align 1
  %29 = alloca i8, align 1
  %30 = alloca i8, align 1
  %31 = alloca i8, align 1
  %32 = alloca i8, align 1
  %33 = alloca <16 x i8>, align 16
  store i8 %0, ptr %17, align 1, !tbaa !11
  store i8 %1, ptr %18, align 1, !tbaa !11
  store i8 %2, ptr %19, align 1, !tbaa !11
  store i8 %3, ptr %20, align 1, !tbaa !11
  store i8 %4, ptr %21, align 1, !tbaa !11
  store i8 %5, ptr %22, align 1, !tbaa !11
  store i8 %6, ptr %23, align 1, !tbaa !11
  store i8 %7, ptr %24, align 1, !tbaa !11
  store i8 %8, ptr %25, align 1, !tbaa !11
  store i8 %9, ptr %26, align 1, !tbaa !11
  store i8 %10, ptr %27, align 1, !tbaa !11
  store i8 %11, ptr %28, align 1, !tbaa !11
  store i8 %12, ptr %29, align 1, !tbaa !11
  store i8 %13, ptr %30, align 1, !tbaa !11
  store i8 %14, ptr %31, align 1, !tbaa !11
  store i8 %15, ptr %32, align 1, !tbaa !11
  %34 = load i8, ptr %32, align 1, !tbaa !11
  %35 = insertelement <16 x i8> poison, i8 %34, i32 0
  %36 = load i8, ptr %31, align 1, !tbaa !11
  %37 = insertelement <16 x i8> %35, i8 %36, i32 1
  %38 = load i8, ptr %30, align 1, !tbaa !11
  %39 = insertelement <16 x i8> %37, i8 %38, i32 2
  %40 = load i8, ptr %29, align 1, !tbaa !11
  %41 = insertelement <16 x i8> %39, i8 %40, i32 3
  %42 = load i8, ptr %28, align 1, !tbaa !11
  %43 = insertelement <16 x i8> %41, i8 %42, i32 4
  %44 = load i8, ptr %27, align 1, !tbaa !11
  %45 = insertelement <16 x i8> %43, i8 %44, i32 5
  %46 = load i8, ptr %26, align 1, !tbaa !11
  %47 = insertelement <16 x i8> %45, i8 %46, i32 6
  %48 = load i8, ptr %25, align 1, !tbaa !11
  %49 = insertelement <16 x i8> %47, i8 %48, i32 7
  %50 = load i8, ptr %24, align 1, !tbaa !11
  %51 = insertelement <16 x i8> %49, i8 %50, i32 8
  %52 = load i8, ptr %23, align 1, !tbaa !11
  %53 = insertelement <16 x i8> %51, i8 %52, i32 9
  %54 = load i8, ptr %22, align 1, !tbaa !11
  %55 = insertelement <16 x i8> %53, i8 %54, i32 10
  %56 = load i8, ptr %21, align 1, !tbaa !11
  %57 = insertelement <16 x i8> %55, i8 %56, i32 11
  %58 = load i8, ptr %20, align 1, !tbaa !11
  %59 = insertelement <16 x i8> %57, i8 %58, i32 12
  %60 = load i8, ptr %19, align 1, !tbaa !11
  %61 = insertelement <16 x i8> %59, i8 %60, i32 13
  %62 = load i8, ptr %18, align 1, !tbaa !11
  %63 = insertelement <16 x i8> %61, i8 %62, i32 14
  %64 = load i8, ptr %17, align 1, !tbaa !11
  %65 = insertelement <16 x i8> %63, i8 %64, i32 15
  store <16 x i8> %65, ptr %33, align 16, !tbaa !11
  %66 = load <16 x i8>, ptr %33, align 16, !tbaa !11
  %67 = bitcast <16 x i8> %66 to <2 x i64>
  ret <2 x i64> %67
}

; Function Attrs: alwaysinline nounwind uwtable
define internal void @_mm_storeu_si128(ptr noundef %0, <2 x i64> noundef %1) #4 {
  %3 = alloca ptr, align 8
  %4 = alloca <2 x i64>, align 16
  store ptr %0, ptr %3, align 8, !tbaa !3
  store <2 x i64> %1, ptr %4, align 16, !tbaa !11
  %5 = load <2 x i64>, ptr %4, align 16, !tbaa !11
  %6 = load ptr, ptr %3, align 8, !tbaa !3
  %7 = getelementptr inbounds nuw %struct.__storeu_si128, ptr %6, i32 0, i32 0
  store <2 x i64> %5, ptr %7, align 1, !tbaa !11
  ret void
}

; Function Attrs: alwaysinline nounwind uwtable
define internal <2 x i64> @_mm_or_si128(<2 x i64> noundef %0, <2 x i64> noundef %1) #4 {
  %3 = alloca <2 x i64>, align 16
  %4 = alloca <2 x i64>, align 16
  store <2 x i64> %0, ptr %3, align 16, !tbaa !11
  store <2 x i64> %1, ptr %4, align 16, !tbaa !11
  %5 = load <2 x i64>, ptr %3, align 16, !tbaa !11
  %6 = load <2 x i64>, ptr %4, align 16, !tbaa !11
  %7 = or <2 x i64> %5, %6
  ret <2 x i64> %7
}

; Function Attrs: alwaysinline nounwind uwtable
define internal <2 x i64> @_mm_slli_epi16(<2 x i64> noundef %0, i32 noundef %1) #4 {
  %3 = alloca <2 x i64>, align 16
  %4 = alloca i32, align 4
  store <2 x i64> %0, ptr %3, align 16, !tbaa !11
  store i32 %1, ptr %4, align 4, !tbaa !9
  %5 = load <2 x i64>, ptr %3, align 16, !tbaa !11
  %6 = bitcast <2 x i64> %5 to <8 x i16>
  %7 = load i32, ptr %4, align 4, !tbaa !9
  %8 = call <8 x i16> @llvm.x86.sse2.pslli.w(<8 x i16> %6, i32 %7)
  %9 = bitcast <8 x i16> %8 to <2 x i64>
  ret <2 x i64> %9
}

; Function Attrs: alwaysinline nounwind uwtable
define internal <2 x i64> @_mm_srli_epi16(<2 x i64> noundef %0, i32 noundef %1) #4 {
  %3 = alloca <2 x i64>, align 16
  %4 = alloca i32, align 4
  store <2 x i64> %0, ptr %3, align 16, !tbaa !11
  store i32 %1, ptr %4, align 4, !tbaa !9
  %5 = load <2 x i64>, ptr %3, align 16, !tbaa !11
  %6 = bitcast <2 x i64> %5 to <8 x i16>
  %7 = load i32, ptr %4, align 4, !tbaa !9
  %8 = call <8 x i16> @llvm.x86.sse2.psrli.w(<8 x i16> %6, i32 %7)
  %9 = bitcast <8 x i16> %8 to <2 x i64>
  ret <2 x i64> %9
}

; Function Attrs: alwaysinline nounwind uwtable
define internal <2 x i64> @_mm_and_si128(<2 x i64> noundef %0, <2 x i64> noundef %1) #4 {
  %3 = alloca <2 x i64>, align 16
  %4 = alloca <2 x i64>, align 16
  store <2 x i64> %0, ptr %3, align 16, !tbaa !11
  store <2 x i64> %1, ptr %4, align 16, !tbaa !11
  %5 = load <2 x i64>, ptr %3, align 16, !tbaa !11
  %6 = load <2 x i64>, ptr %4, align 16, !tbaa !11
  %7 = and <2 x i64> %5, %6
  ret <2 x i64> %7
}

; Function Attrs: alwaysinline nounwind uwtable
define internal <2 x i64> @_mm_unpacklo_epi64(<2 x i64> noundef %0, <2 x i64> noundef %1) #4 {
  %3 = alloca <2 x i64>, align 16
  %4 = alloca <2 x i64>, align 16
  store <2 x i64> %0, ptr %3, align 16, !tbaa !11
  store <2 x i64> %1, ptr %4, align 16, !tbaa !11
  %5 = load <2 x i64>, ptr %3, align 16, !tbaa !11
  %6 = load <2 x i64>, ptr %4, align 16, !tbaa !11
  %7 = shufflevector <2 x i64> %5, <2 x i64> %6, <2 x i32> <i32 0, i32 2>
  ret <2 x i64> %7
}

; Function Attrs: alwaysinline nounwind uwtable
define internal <2 x i64> @_mm_unpackhi_epi64(<2 x i64> noundef %0, <2 x i64> noundef %1) #4 {
  %3 = alloca <2 x i64>, align 16
  %4 = alloca <2 x i64>, align 16
  store <2 x i64> %0, ptr %3, align 16, !tbaa !11
  store <2 x i64> %1, ptr %4, align 16, !tbaa !11
  %5 = load <2 x i64>, ptr %3, align 16, !tbaa !11
  %6 = load <2 x i64>, ptr %4, align 16, !tbaa !11
  %7 = shufflevector <2 x i64> %5, <2 x i64> %6, <2 x i32> <i32 1, i32 3>
  ret <2 x i64> %7
}

; Function Attrs: alwaysinline nounwind uwtable
define internal <2 x i64> @_mm_unpackhi_epi8(<2 x i64> noundef %0, <2 x i64> noundef %1) #4 {
  %3 = alloca <2 x i64>, align 16
  %4 = alloca <2 x i64>, align 16
  store <2 x i64> %0, ptr %3, align 16, !tbaa !11
  store <2 x i64> %1, ptr %4, align 16, !tbaa !11
  %5 = load <2 x i64>, ptr %3, align 16, !tbaa !11
  %6 = bitcast <2 x i64> %5 to <16 x i8>
  %7 = load <2 x i64>, ptr %4, align 16, !tbaa !11
  %8 = bitcast <2 x i64> %7 to <16 x i8>
  %9 = shufflevector <16 x i8> %6, <16 x i8> %8, <16 x i32> <i32 8, i32 24, i32 9, i32 25, i32 10, i32 26, i32 11, i32 27, i32 12, i32 28, i32 13, i32 29, i32 14, i32 30, i32 15, i32 31>
  %10 = bitcast <16 x i8> %9 to <2 x i64>
  ret <2 x i64> %10
}

; Function Attrs: alwaysinline nounwind uwtable
define internal <2 x i64> @_mm_unpacklo_epi8(<2 x i64> noundef %0, <2 x i64> noundef %1) #4 {
  %3 = alloca <2 x i64>, align 16
  %4 = alloca <2 x i64>, align 16
  store <2 x i64> %0, ptr %3, align 16, !tbaa !11
  store <2 x i64> %1, ptr %4, align 16, !tbaa !11
  %5 = load <2 x i64>, ptr %3, align 16, !tbaa !11
  %6 = bitcast <2 x i64> %5 to <16 x i8>
  %7 = load <2 x i64>, ptr %4, align 16, !tbaa !11
  %8 = bitcast <2 x i64> %7 to <16 x i8>
  %9 = shufflevector <16 x i8> %6, <16 x i8> %8, <16 x i32> <i32 0, i32 16, i32 1, i32 17, i32 2, i32 18, i32 3, i32 19, i32 4, i32 20, i32 5, i32 21, i32 6, i32 22, i32 7, i32 23>
  %10 = bitcast <16 x i8> %9 to <2 x i64>
  ret <2 x i64> %10
}

; Function Attrs: alwaysinline nounwind uwtable
define internal <2 x i64> @_mm_loadu_si128(ptr noundef %0) #4 {
  %2 = alloca ptr, align 8
  store ptr %0, ptr %2, align 8, !tbaa !3
  %3 = load ptr, ptr %2, align 8, !tbaa !3
  %4 = getelementptr inbounds nuw %struct.__loadu_si128, ptr %3, i32 0, i32 0
  %5 = load <2 x i64>, ptr %4, align 1, !tbaa !11
  ret <2 x i64> %5
}

; Function Attrs: alwaysinline nounwind uwtable
define internal <2 x i64> @_mm_set1_epi8(i8 noundef signext %0) #4 {
  %2 = alloca i8, align 1
  store i8 %0, ptr %2, align 1, !tbaa !11
  %3 = load i8, ptr %2, align 1, !tbaa !11
  %4 = load i8, ptr %2, align 1, !tbaa !11
  %5 = load i8, ptr %2, align 1, !tbaa !11
  %6 = load i8, ptr %2, align 1, !tbaa !11
  %7 = load i8, ptr %2, align 1, !tbaa !11
  %8 = load i8, ptr %2, align 1, !tbaa !11
  %9 = load i8, ptr %2, align 1, !tbaa !11
  %10 = load i8, ptr %2, align 1, !tbaa !11
  %11 = load i8, ptr %2, align 1, !tbaa !11
  %12 = load i8, ptr %2, align 1, !tbaa !11
  %13 = load i8, ptr %2, align 1, !tbaa !11
  %14 = load i8, ptr %2, align 1, !tbaa !11
  %15 = load i8, ptr %2, align 1, !tbaa !11
  %16 = load i8, ptr %2, align 1, !tbaa !11
  %17 = load i8, ptr %2, align 1, !tbaa !11
  %18 = load i8, ptr %2, align 1, !tbaa !11
  %19 = call <2 x i64> @_mm_set_epi8(i8 noundef signext %3, i8 noundef signext %4, i8 noundef signext %5, i8 noundef signext %6, i8 noundef signext %7, i8 noundef signext %8, i8 noundef signext %9, i8 noundef signext %10, i8 noundef signext %11, i8 noundef signext %12, i8 noundef signext %13, i8 noundef signext %14, i8 noundef signext %15, i8 noundef signext %16, i8 noundef signext %17, i8 noundef signext %18)
  ret <2 x i64> %19
}

; Function Attrs: nounwind uwtable
define internal void @ConvertBGRAToRGB565_SSE2(ptr noalias noundef %0, i32 noundef %1, ptr noalias noundef %2) #1 {
  %4 = alloca ptr, align 8
  %5 = alloca i32, align 4
  %6 = alloca ptr, align 8
  %7 = alloca <2 x i64>, align 16
  %8 = alloca <2 x i64>, align 16
  %9 = alloca <2 x i64>, align 16
  %10 = alloca ptr, align 8
  %11 = alloca ptr, align 8
  %12 = alloca <2 x i64>, align 16
  %13 = alloca <2 x i64>, align 16
  %14 = alloca <2 x i64>, align 16
  %15 = alloca <2 x i64>, align 16
  %16 = alloca <2 x i64>, align 16
  %17 = alloca <2 x i64>, align 16
  %18 = alloca <2 x i64>, align 16
  %19 = alloca <2 x i64>, align 16
  %20 = alloca <2 x i64>, align 16
  %21 = alloca <2 x i64>, align 16
  %22 = alloca <2 x i64>, align 16
  %23 = alloca <2 x i64>, align 16
  %24 = alloca <2 x i64>, align 16
  %25 = alloca <2 x i64>, align 16
  %26 = alloca <2 x i64>, align 16
  %27 = alloca <2 x i64>, align 16
  %28 = alloca <2 x i64>, align 16
  %29 = alloca <2 x i64>, align 16
  %30 = alloca <2 x i64>, align 16
  %31 = alloca <2 x i64>, align 16
  store ptr %0, ptr %4, align 8, !tbaa !7
  store i32 %1, ptr %5, align 4, !tbaa !9
  store ptr %2, ptr %6, align 8, !tbaa !33
  call void @llvm.lifetime.start.p0(i64 16, ptr %7) #9
  %32 = call <2 x i64> @_mm_set1_epi8(i8 noundef signext -32)
  store <2 x i64> %32, ptr %7, align 16, !tbaa !11
  call void @llvm.lifetime.start.p0(i64 16, ptr %8) #9
  %33 = call <2 x i64> @_mm_set1_epi8(i8 noundef signext -8)
  store <2 x i64> %33, ptr %8, align 16, !tbaa !11
  call void @llvm.lifetime.start.p0(i64 16, ptr %9) #9
  %34 = call <2 x i64> @_mm_set1_epi8(i8 noundef signext 7)
  store <2 x i64> %34, ptr %9, align 16, !tbaa !11
  call void @llvm.lifetime.start.p0(i64 8, ptr %10) #9
  %35 = load ptr, ptr %4, align 8, !tbaa !7
  store ptr %35, ptr %10, align 8, !tbaa !3
  call void @llvm.lifetime.start.p0(i64 8, ptr %11) #9
  %36 = load ptr, ptr %6, align 8, !tbaa !33
  store ptr %36, ptr %11, align 8, !tbaa !3
  br label %37

37:                                               ; preds = %40, %3
  %38 = load i32, ptr %5, align 4, !tbaa !9
  %39 = icmp sge i32 %38, 8
  br i1 %39, label %40, label %104

40:                                               ; preds = %37
  call void @llvm.lifetime.start.p0(i64 16, ptr %12) #9
  %41 = load ptr, ptr %10, align 8, !tbaa !3
  %42 = getelementptr inbounds nuw <2 x i64>, ptr %41, i32 1
  store ptr %42, ptr %10, align 8, !tbaa !3
  %43 = call <2 x i64> @_mm_loadu_si128(ptr noundef %41)
  store <2 x i64> %43, ptr %12, align 16, !tbaa !11
  call void @llvm.lifetime.start.p0(i64 16, ptr %13) #9
  %44 = load ptr, ptr %10, align 8, !tbaa !3
  %45 = getelementptr inbounds nuw <2 x i64>, ptr %44, i32 1
  store ptr %45, ptr %10, align 8, !tbaa !3
  %46 = call <2 x i64> @_mm_loadu_si128(ptr noundef %44)
  store <2 x i64> %46, ptr %13, align 16, !tbaa !11
  call void @llvm.lifetime.start.p0(i64 16, ptr %14) #9
  %47 = load <2 x i64>, ptr %12, align 16, !tbaa !11
  %48 = load <2 x i64>, ptr %13, align 16, !tbaa !11
  %49 = call <2 x i64> @_mm_unpacklo_epi8(<2 x i64> noundef %47, <2 x i64> noundef %48)
  store <2 x i64> %49, ptr %14, align 16, !tbaa !11
  call void @llvm.lifetime.start.p0(i64 16, ptr %15) #9
  %50 = load <2 x i64>, ptr %12, align 16, !tbaa !11
  %51 = load <2 x i64>, ptr %13, align 16, !tbaa !11
  %52 = call <2 x i64> @_mm_unpackhi_epi8(<2 x i64> noundef %50, <2 x i64> noundef %51)
  store <2 x i64> %52, ptr %15, align 16, !tbaa !11
  call void @llvm.lifetime.start.p0(i64 16, ptr %16) #9
  %53 = load <2 x i64>, ptr %14, align 16, !tbaa !11
  %54 = load <2 x i64>, ptr %15, align 16, !tbaa !11
  %55 = call <2 x i64> @_mm_unpacklo_epi8(<2 x i64> noundef %53, <2 x i64> noundef %54)
  store <2 x i64> %55, ptr %16, align 16, !tbaa !11
  call void @llvm.lifetime.start.p0(i64 16, ptr %17) #9
  %56 = load <2 x i64>, ptr %14, align 16, !tbaa !11
  %57 = load <2 x i64>, ptr %15, align 16, !tbaa !11
  %58 = call <2 x i64> @_mm_unpackhi_epi8(<2 x i64> noundef %56, <2 x i64> noundef %57)
  store <2 x i64> %58, ptr %17, align 16, !tbaa !11
  call void @llvm.lifetime.start.p0(i64 16, ptr %18) #9
  %59 = load <2 x i64>, ptr %16, align 16, !tbaa !11
  %60 = load <2 x i64>, ptr %17, align 16, !tbaa !11
  %61 = call <2 x i64> @_mm_unpacklo_epi8(<2 x i64> noundef %59, <2 x i64> noundef %60)
  store <2 x i64> %61, ptr %18, align 16, !tbaa !11
  call void @llvm.lifetime.start.p0(i64 16, ptr %19) #9
  %62 = load <2 x i64>, ptr %16, align 16, !tbaa !11
  %63 = load <2 x i64>, ptr %17, align 16, !tbaa !11
  %64 = call <2 x i64> @_mm_unpackhi_epi8(<2 x i64> noundef %62, <2 x i64> noundef %63)
  store <2 x i64> %64, ptr %19, align 16, !tbaa !11
  call void @llvm.lifetime.start.p0(i64 16, ptr %20) #9
  %65 = load <2 x i64>, ptr %18, align 16, !tbaa !11
  %66 = load <2 x i64>, ptr %19, align 16, !tbaa !11
  %67 = call <2 x i64> @_mm_unpackhi_epi64(<2 x i64> noundef %65, <2 x i64> noundef %66)
  store <2 x i64> %67, ptr %20, align 16, !tbaa !11
  call void @llvm.lifetime.start.p0(i64 16, ptr %21) #9
  %68 = load <2 x i64>, ptr %19, align 16, !tbaa !11
  %69 = load <2 x i64>, ptr %18, align 16, !tbaa !11
  %70 = call <2 x i64> @_mm_unpacklo_epi64(<2 x i64> noundef %68, <2 x i64> noundef %69)
  store <2 x i64> %70, ptr %21, align 16, !tbaa !11
  call void @llvm.lifetime.start.p0(i64 16, ptr %22) #9
  %71 = load <2 x i64>, ptr %21, align 16, !tbaa !11
  %72 = load <2 x i64>, ptr %8, align 16, !tbaa !11
  %73 = call <2 x i64> @_mm_and_si128(<2 x i64> noundef %71, <2 x i64> noundef %72)
  store <2 x i64> %73, ptr %22, align 16, !tbaa !11
  call void @llvm.lifetime.start.p0(i64 16, ptr %23) #9
  %74 = load <2 x i64>, ptr %20, align 16, !tbaa !11
  %75 = call <2 x i64> @_mm_srli_epi16(<2 x i64> noundef %74, i32 noundef 5)
  store <2 x i64> %75, ptr %23, align 16, !tbaa !11
  call void @llvm.lifetime.start.p0(i64 16, ptr %24) #9
  %76 = load <2 x i64>, ptr %23, align 16, !tbaa !11
  %77 = load <2 x i64>, ptr %9, align 16, !tbaa !11
  %78 = call <2 x i64> @_mm_and_si128(<2 x i64> noundef %76, <2 x i64> noundef %77)
  store <2 x i64> %78, ptr %24, align 16, !tbaa !11
  call void @llvm.lifetime.start.p0(i64 16, ptr %25) #9
  %79 = load <2 x i64>, ptr %20, align 16, !tbaa !11
  %80 = call <2 x i64> @_mm_slli_epi16(<2 x i64> noundef %79, i32 noundef 3)
  store <2 x i64> %80, ptr %25, align 16, !tbaa !11
  call void @llvm.lifetime.start.p0(i64 16, ptr %26) #9
  %81 = load <2 x i64>, ptr %25, align 16, !tbaa !11
  %82 = load <2 x i64>, ptr %7, align 16, !tbaa !11
  %83 = call <2 x i64> @_mm_and_si128(<2 x i64> noundef %81, <2 x i64> noundef %82)
  store <2 x i64> %83, ptr %26, align 16, !tbaa !11
  call void @llvm.lifetime.start.p0(i64 16, ptr %27) #9
  %84 = load <2 x i64>, ptr %22, align 16, !tbaa !11
  %85 = bitcast <2 x i64> %84 to <16 x i8>
  %86 = shufflevector <16 x i8> %85, <16 x i8> zeroinitializer, <16 x i32> <i32 8, i32 9, i32 10, i32 11, i32 12, i32 13, i32 14, i32 15, i32 16, i32 17, i32 18, i32 19, i32 20, i32 21, i32 22, i32 23>
  %87 = bitcast <16 x i8> %86 to <2 x i64>
  store <2 x i64> %87, ptr %27, align 16, !tbaa !11
  call void @llvm.lifetime.start.p0(i64 16, ptr %28) #9
  %88 = load <2 x i64>, ptr %22, align 16, !tbaa !11
  %89 = load <2 x i64>, ptr %24, align 16, !tbaa !11
  %90 = call <2 x i64> @_mm_or_si128(<2 x i64> noundef %88, <2 x i64> noundef %89)
  store <2 x i64> %90, ptr %28, align 16, !tbaa !11
  call void @llvm.lifetime.start.p0(i64 16, ptr %29) #9
  %91 = load <2 x i64>, ptr %27, align 16, !tbaa !11
  %92 = call <2 x i64> @_mm_srli_epi16(<2 x i64> noundef %91, i32 noundef 3)
  store <2 x i64> %92, ptr %29, align 16, !tbaa !11
  call void @llvm.lifetime.start.p0(i64 16, ptr %30) #9
  %93 = load <2 x i64>, ptr %29, align 16, !tbaa !11
  %94 = load <2 x i64>, ptr %26, align 16, !tbaa !11
  %95 = call <2 x i64> @_mm_or_si128(<2 x i64> noundef %93, <2 x i64> noundef %94)
  store <2 x i64> %95, ptr %30, align 16, !tbaa !11
  call void @llvm.lifetime.start.p0(i64 16, ptr %31) #9
  %96 = load <2 x i64>, ptr %28, align 16, !tbaa !11
  %97 = load <2 x i64>, ptr %30, align 16, !tbaa !11
  %98 = call <2 x i64> @_mm_unpacklo_epi8(<2 x i64> noundef %96, <2 x i64> noundef %97)
  store <2 x i64> %98, ptr %31, align 16, !tbaa !11
  %99 = load ptr, ptr %11, align 8, !tbaa !3
  %100 = getelementptr inbounds nuw <2 x i64>, ptr %99, i32 1
  store ptr %100, ptr %11, align 8, !tbaa !3
  %101 = load <2 x i64>, ptr %31, align 16, !tbaa !11
  call void @_mm_storeu_si128(ptr noundef %99, <2 x i64> noundef %101)
  %102 = load i32, ptr %5, align 4, !tbaa !9
  %103 = sub nsw i32 %102, 8
  store i32 %103, ptr %5, align 4, !tbaa !9
  call void @llvm.lifetime.end.p0(i64 16, ptr %31) #9
  call void @llvm.lifetime.end.p0(i64 16, ptr %30) #9
  call void @llvm.lifetime.end.p0(i64 16, ptr %29) #9
  call void @llvm.lifetime.end.p0(i64 16, ptr %28) #9
  call void @llvm.lifetime.end.p0(i64 16, ptr %27) #9
  call void @llvm.lifetime.end.p0(i64 16, ptr %26) #9
  call void @llvm.lifetime.end.p0(i64 16, ptr %25) #9
  call void @llvm.lifetime.end.p0(i64 16, ptr %24) #9
  call void @llvm.lifetime.end.p0(i64 16, ptr %23) #9
  call void @llvm.lifetime.end.p0(i64 16, ptr %22) #9
  call void @llvm.lifetime.end.p0(i64 16, ptr %21) #9
  call void @llvm.lifetime.end.p0(i64 16, ptr %20) #9
  call void @llvm.lifetime.end.p0(i64 16, ptr %19) #9
  call void @llvm.lifetime.end.p0(i64 16, ptr %18) #9
  call void @llvm.lifetime.end.p0(i64 16, ptr %17) #9
  call void @llvm.lifetime.end.p0(i64 16, ptr %16) #9
  call void @llvm.lifetime.end.p0(i64 16, ptr %15) #9
  call void @llvm.lifetime.end.p0(i64 16, ptr %14) #9
  call void @llvm.lifetime.end.p0(i64 16, ptr %13) #9
  call void @llvm.lifetime.end.p0(i64 16, ptr %12) #9
  br label %37, !llvm.loop !38

104:                                              ; preds = %37
  %105 = load i32, ptr %5, align 4, !tbaa !9
  %106 = icmp sgt i32 %105, 0
  br i1 %106, label %107, label %111

107:                                              ; preds = %104
  %108 = load ptr, ptr %10, align 8, !tbaa !3
  %109 = load i32, ptr %5, align 4, !tbaa !9
  %110 = load ptr, ptr %11, align 8, !tbaa !3
  call void @VP8LConvertBGRAToRGB565_C(ptr noundef %108, i32 noundef %109, ptr noundef %110)
  br label %111

111:                                              ; preds = %107, %104
  call void @llvm.lifetime.end.p0(i64 8, ptr %11) #9
  call void @llvm.lifetime.end.p0(i64 8, ptr %10) #9
  call void @llvm.lifetime.end.p0(i64 16, ptr %9) #9
  call void @llvm.lifetime.end.p0(i64 16, ptr %8) #9
  call void @llvm.lifetime.end.p0(i64 16, ptr %7) #9
  ret void
}