; Function Attrs: nounwind uwtable
define internal void @ConvertBGRAToRGB565_SSE2(ptr noalias noundef %0, i32 noundef %1, ptr noalias noundef %2) #2 {
  %4 = icmp sgt i32 %1, 7
  br i1 %4, label %.lr.ph, label %._crit_edge

.lr.ph:                                           ; preds = %3, %.lr.ph
  %.047 = phi i32 [ %34, %.lr.ph ], [ %1, %3 ]
  %.04346 = phi ptr [ %7, %.lr.ph ], [ %0, %3 ]
  %.04445 = phi ptr [ %33, %.lr.ph ], [ %2, %3 ]
  %5 = getelementptr inbounds nuw i8, ptr %.04346, i64 16
  %6 = load <16 x i8>, ptr %.04346, align 1, !tbaa !9
  %7 = getelementptr inbounds nuw i8, ptr %.04346, i64 32
  %8 = load <16 x i8>, ptr %5, align 1, !tbaa !9
  %9 = shufflevector <16 x i8> %6, <16 x i8> %8, <16 x i32> <i32 0, i32 4, i32 8, i32 12, i32 16, i32 20, i32 24, i32 28, i32 1, i32 5, i32 9, i32 13, i32 17, i32 21, i32 25, i32 29>
  %10 = bitcast <16 x i8> %9 to <2 x i64>
  %11 = shufflevector <16 x i8> %6, <16 x i8> %8, <16 x i32> <i32 2, i32 6, i32 10, i32 14, i32 18, i32 22, i32 26, i32 30, i32 3, i32 7, i32 11, i32 15, i32 19, i32 23, i32 27, i32 31>
  %12 = bitcast <16 x i8> %11 to <2 x i64>
  %13 = shufflevector <2 x i64> %10, <2 x i64> %12, <2 x i32> <i32 1, i32 3>
  %14 = shufflevector <2 x i64> %12, <2 x i64> %10, <2 x i32> <i32 0, i32 2>
  %15 = and <2 x i64> %14, splat (i64 -506381209866536712)
  %16 = bitcast <2 x i64> %13 to <8 x i16>
  %17 = lshr <8 x i16> %16, splat (i16 5)
  %18 = bitcast <8 x i16> %17 to <2 x i64>
  %19 = and <2 x i64> %18, <i64 506381209866536711, i64 poison>
  %20 = shl <8 x i16> %16, splat (i16 3)
  %21 = bitcast <8 x i16> %20 to <2 x i64>
  %22 = and <2 x i64> %21, <i64 -2242545357980376864, i64 poison>
  %23 = bitcast <2 x i64> %15 to <16 x i8>
  %24 = shufflevector <16 x i8> %23, <16 x i8> <i8 0, i8 0, i8 0, i8 0, i8 0, i8 0, i8 0, i8 0, i8 poison, i8 poison, i8 poison, i8 poison, i8 poison, i8 poison, i8 poison, i8 poison>, <16 x i32> <i32 8, i32 9, i32 10, i32 11, i32 12, i32 13, i32 14, i32 15, i32 16, i32 17, i32 18, i32 19, i32 20, i32 21, i32 22, i32 23>
  %25 = or disjoint <2 x i64> %19, %15
  %26 = bitcast <16 x i8> %24 to <8 x i16>
  %27 = lshr <8 x i16> %26, splat (i16 3)
  %28 = bitcast <8 x i16> %27 to <2 x i64>
  %29 = or <2 x i64> %22, %28
  %30 = bitcast <2 x i64> %25 to <16 x i8>
  %31 = bitcast <2 x i64> %29 to <16 x i8>
  %32 = shufflevector <16 x i8> %30, <16 x i8> %31, <16 x i32> <i32 0, i32 16, i32 1, i32 17, i32 2, i32 18, i32 3, i32 19, i32 4, i32 20, i32 5, i32 21, i32 6, i32 22, i32 7, i32 23>
  %33 = getelementptr inbounds nuw i8, ptr %.04445, i64 16
  store <16 x i8> %32, ptr %.04445, align 1, !tbaa !9
  %34 = add nsw i32 %.047, -8
  %35 = icmp samesign ugt i32 %.047, 15
  br i1 %35, label %.lr.ph, label %._crit_edge, !llvm.loop !34

._crit_edge:                                      ; preds = %.lr.ph, %3
  %.044.lcssa = phi ptr [ %2, %3 ], [ %33, %.lr.ph ]
  %.043.lcssa = phi ptr [ %0, %3 ], [ %7, %.lr.ph ]
  %.0.lcssa = phi i32 [ %1, %3 ], [ %34, %.lr.ph ]
  %36 = icmp sgt i32 %.0.lcssa, 0
  br i1 %36, label %37, label %38

37:                                               ; preds = %._crit_edge
  tail call void @VP8LConvertBGRAToRGB565_C(ptr noundef %.043.lcssa, i32 noundef %.0.lcssa, ptr noundef %.044.lcssa) #7
  br label %38

38:                                               ; preds = %37, %._crit_edge
  ret void
}